target datalayout = "e-m:e-p270:32:32-p271:32:32-p272:64:64-i64:64-i128:128-f80:128-n8:16:32:64-S128"
target triple = "x86_64-pc-linux-gnu"

%struct.SDL_Renderer = type { ptr, ptr, ptr, ptr, ptr, ptr, ptr, ptr, ptr, ptr, ptr, ptr, ptr, ptr, ptr, ptr, ptr, ptr, ptr, ptr, ptr, ptr, ptr, ptr, ptr, ptr, ptr, ptr, ptr, ptr, i32, i8, ptr, i8, i8, i8, i64, i64, ptr, %struct.SDL_RenderViewState, %struct.SDL_FPoint, i32, i32, ptr, ptr, ptr, i32, float, float, float, float, %struct.SDL_FColor, i32, i32, i32, ptr, ptr, ptr, ptr, i32, %struct.SDL_FColor, float, %struct.SDL_Rect, %struct.SDL_Rect, i8, i8, i8, i8, ptr, i64, i64, i8, ptr, ptr, i32, ptr, i8, ptr, ptr }
%struct.SDL_RenderViewState = type { i32, i32, %struct.SDL_Rect, %struct.SDL_Rect, %struct.SDL_Rect, %struct.SDL_Rect, i8, %struct.SDL_FPoint, i32, i32, i32, %struct.SDL_FRect, %struct.SDL_FRect, %struct.SDL_FPoint, %struct.SDL_FPoint, %struct.SDL_FPoint }
%struct.SDL_FRect = type { float, float, float, float }
%struct.SDL_FPoint = type { float, float }
%struct.SDL_FColor = type { float, float, float, float }
%struct.SDL_Rect = type { i32, i32, i32, i32 }
%struct.GL_RenderData = type { ptr, i8, i8, i32, ptr, ptr, ptr, i32, i8, i8, i8, ptr, ptr, ptr, ptr, ptr, ptr, ptr, ptr, ptr, ptr, ptr, ptr, ptr, ptr, ptr, ptr, ptr, ptr, ptr, ptr, ptr, ptr, ptr, ptr, ptr, ptr, ptr, ptr, ptr, ptr, ptr, ptr, ptr, ptr, ptr, ptr, ptr, ptr, ptr, ptr, ptr, ptr, ptr, ptr, ptr, ptr, ptr, ptr, ptr, i8, ptr, i32, ptr, ptr, ptr, ptr, ptr, ptr, %struct.GL_DrawStateCache }
%struct.GL_DrawStateCache = type { i8, %struct.SDL_Rect, ptr, ptr, i32, i32, i32, i32, [4 x float], ptr, i8, i8, i8, %struct.SDL_Rect, i8, i8, i8, i8, i8, i8, %struct.SDL_FColor, i8, %struct.SDL_FColor }
%struct.SDL_Texture = type { i32, i32, i32, i32, i32, float, float, i32, i32, i32, %struct.SDL_FColor, %struct.SDL_RenderViewState, ptr, ptr, ptr, ptr, i32, %struct.SDL_Rect, ptr, i32, i32, ptr, ptr, ptr }
%struct.GL_TextureData = type { i32, i8, float, float, i32, i32, i32, [4 x float], ptr, ptr, i32, %struct.SDL_Rect, i8, i8, i32, i8, i32, i8, i32, i32, i32, ptr }

; Function Attrs: nounwind uwtable
define internal void @GL_DestroyTexture(ptr noundef %0, ptr noundef %1) #0 {
  %3 = alloca ptr, align 8
  %4 = alloca ptr, align 8
  %5 = alloca ptr, align 8
  %6 = alloca ptr, align 8
  %7 = alloca i32, align 4
  store ptr %0, ptr %3, align 8
  store ptr %1, ptr %4, align 8
  call void @llvm.lifetime.start.p0(i64 8, ptr %5) #4
  %8 = load ptr, ptr %3, align 8
  %9 = getelementptr inbounds nuw %struct.SDL_Renderer, ptr %8, i32 0, i32 77
  %10 = load ptr, ptr %9, align 8
  store ptr %10, ptr %5, align 8
  call void @llvm.lifetime.start.p0(i64 8, ptr %6) #4
  %11 = load ptr, ptr %4, align 8
  %12 = getelementptr inbounds nuw %struct.SDL_Texture, ptr %11, i32 0, i32 21
  %13 = load ptr, ptr %12, align 8
  store ptr %13, ptr %6, align 8
  %14 = load ptr, ptr %3, align 8
  %15 = call zeroext i1 @GL_ActivateRenderer(ptr noundef %14)
  %16 = load ptr, ptr %5, align 8
  %17 = getelementptr inbounds nuw %struct.GL_RenderData, ptr %16, i32 0, i32 69
  %18 = getelementptr inbounds nuw %struct.GL_DrawStateCache, ptr %17, i32 0, i32 2
  %19 = load ptr, ptr %18, align 8
  %20 = load ptr, ptr %4, align 8
  %21 = icmp eq ptr %19, %20
  br i1 %21, label %22, label %26

22:                                               ; preds = %2
  %23 = load ptr, ptr %5, align 8
  %24 = getelementptr inbounds nuw %struct.GL_RenderData, ptr %23, i32 0, i32 69
  %25 = getelementptr inbounds nuw %struct.GL_DrawStateCache, ptr %24, i32 0, i32 2
  store ptr null, ptr %25, align 8
  br label %26

26:                                               ; preds = %22, %2
  %27 = load ptr, ptr %5, align 8
  %28 = getelementptr inbounds nuw %struct.GL_RenderData, ptr %27, i32 0, i32 69
  %29 = getelementptr inbounds nuw %struct.GL_DrawStateCache, ptr %28, i32 0, i32 3
  %30 = load ptr, ptr %29, align 8
  %31 = load ptr, ptr %4, align 8
  %32 = icmp eq ptr %30, %31
  br i1 %32, label %33, label %37

33:                                               ; preds = %26
  %34 = load ptr, ptr %5, align 8
  %35 = getelementptr inbounds nuw %struct.GL_RenderData, ptr %34, i32 0, i32 69
  %36 = getelementptr inbounds nuw %struct.GL_DrawStateCache, ptr %35, i32 0, i32 3
  store ptr null, ptr %36, align 8
  br label %37

37:                                               ; preds = %33, %26
  %38 = load ptr, ptr %6, align 8
  %39 = icmp ne ptr %38, null
  br i1 %39, label %41, label %40

40:                                               ; preds = %37
  store i32 1, ptr %7, align 4
  br label %109

41:                                               ; preds = %37
  %42 = load ptr, ptr %6, align 8
  %43 = getelementptr inbounds nuw %struct.GL_TextureData, ptr %42, i32 0, i32 0
  %44 = load i32, ptr %43, align 8
  %45 = icmp ne i32 %44, 0
  br i1 %45, label %46, label %57

46:                                               ; preds = %41
  %47 = load ptr, ptr %6, align 8
  %48 = getelementptr inbounds nuw %struct.GL_TextureData, ptr %47, i32 0, i32 1
  %49 = load i8, ptr %48, align 4, !range !3, !noundef !4
  %50 = trunc i8 %49 to i1
  br i1 %50, label %57, label %51

51:                                               ; preds = %46
  %52 = load ptr, ptr %5, align 8
  %53 = getelementptr inbounds nuw %struct.GL_RenderData, ptr %52, i32 0, i32 22
  %54 = load ptr, ptr %53, align 8
  %55 = load ptr, ptr %6, align 8
  %56 = getelementptr inbounds nuw %struct.GL_TextureData, ptr %55, i32 0, i32 0
  call void %54(i32 noundef 1, ptr noundef %56)
  br label %57

57:                                               ; preds = %51, %46, %41
  %58 = load ptr, ptr %6, align 8
  %59 = getelementptr inbounds nuw %struct.GL_TextureData, ptr %58, i32 0, i32 12
  %60 = load i8, ptr %59, align 4, !range !3, !noundef !4
  %61 = trunc i8 %60 to i1
  br i1 %61, label %62, label %85

62:                                               ; preds = %57
  %63 = load ptr, ptr %6, align 8
  %64 = getelementptr inbounds nuw %struct.GL_TextureData, ptr %63, i32 0, i32 15
  %65 = load i8, ptr %64, align 4, !range !3, !noundef !4
  %66 = trunc i8 %65 to i1
  br i1 %66, label %73, label %67

67:                                               ; preds = %62
  %68 = load ptr, ptr %5, align 8
  %69 = getelementptr inbounds nuw %struct.GL_RenderData, ptr %68, i32 0, i32 22
  %70 = load ptr, ptr %69, align 8
  %71 = load ptr, ptr %6, align 8
  %72 = getelementptr inbounds nuw %struct.GL_TextureData, ptr %71, i32 0, i32 14
  call void %70(i32 noundef 1, ptr noundef %72)
  br label %73

73:                                               ; preds = %67, %62
  %74 = load ptr, ptr %6, align 8
  %75 = getelementptr inbounds nuw %struct.GL_TextureData, ptr %74, i32 0, i32 17
  %76 = load i8, ptr %75, align 4, !range !3, !noundef !4
  %77 = trunc i8 %76 to i1
  br i1 %77, label %84, label %78

78:                                               ; preds = %73
  %79 = load ptr, ptr %5, align 8
  %80 = getelementptr inbounds nuw %struct.GL_RenderData, ptr %79, i32 0, i32 22
  %81 = load ptr, ptr %80, align 8
  %82 = load ptr, ptr %6, align 8
  %83 = getelementptr inbounds nuw %struct.GL_TextureData, ptr %82, i32 0, i32 16
  call void %81(i32 noundef 1, ptr noundef %83)
  br label %84

84:                                               ; preds = %78, %73
  br label %85

85:                                               ; preds = %84, %57
  %86 = load ptr, ptr %6, align 8
  %87 = getelementptr inbounds nuw %struct.GL_TextureData, ptr %86, i32 0, i32 13
  %88 = load i8, ptr %87, align 1, !range !3, !noundef !4
  %89 = trunc i8 %88 to i1
  br i1 %89, label %90, label %102

90:                                               ; preds = %85
  %91 = load ptr, ptr %6, align 8
  %92 = getelementptr inbounds nuw %struct.GL_TextureData, ptr %91, i32 0, i32 15
  %93 = load i8, ptr %92, align 4, !range !3, !noundef !4
  %94 = trunc i8 %93 to i1
  br i1 %94, label %101, label %95

95:                                               ; preds = %90
  %96 = load ptr, ptr %5, align 8
  %97 = getelementptr inbounds nuw %struct.GL_RenderData, ptr %96, i32 0, i32 22
  %98 = load ptr, ptr %97, align 8
  %99 = load ptr, ptr %6, align 8
  %100 = getelementptr inbounds nuw %struct.GL_TextureData, ptr %99, i32 0, i32 14
  call void %98(i32 noundef 1, ptr noundef %100)
  br label %101

101:                                              ; preds = %95, %90
  br label %102

102:                                              ; preds = %101, %85
  %103 = load ptr, ptr %6, align 8
  %104 = getelementptr inbounds nuw %struct.GL_TextureData, ptr %103, i32 0, i32 9
  %105 = load ptr, ptr %104, align 8
  call void @SDL_free_REAL(ptr noundef %105)
  %106 = load ptr, ptr %6, align 8
  call void @SDL_free_REAL(ptr noundef %106)
  %107 = load ptr, ptr %4, align 8
  %108 = getelementptr inbounds nuw %struct.SDL_Texture, ptr %107, i32 0, i32 21
  store ptr null, ptr %108, align 8
  store i32 0, ptr %7, align 4
  br label %109

109:                                              ; preds = %102, %40
  call void @llvm.lifetime.end.p0(i64 8, ptr %6) #4
  call void @llvm.lifetime.end.p0(i64 8, ptr %5) #4
  %110 = load i32, ptr %7, align 4
  switch i32 %110, label %112 [
    i32 0, label %111
    i32 1, label %111
  ]

111:                                              ; preds = %109, %109
  ret void

112:                                              ; preds = %109
  unreachable
}