; Function Attrs: nounwind uwtable
define internal void @GL_DestroyTexture(ptr noundef readonly captures(none) %0, ptr noundef captures(address) %1) #0 {
  %3 = getelementptr inbounds nuw i8, ptr %0, i64 696
  %4 = load ptr, ptr %3, align 8
  %5 = getelementptr inbounds nuw i8, ptr %1, i64 280
  %6 = load ptr, ptr %5, align 8
  %7 = tail call fastcc zeroext i1 @GL_ActivateRenderer(ptr noundef %0)
  %8 = getelementptr inbounds nuw i8, ptr %4, i64 536
  %9 = load ptr, ptr %8, align 8
  %10 = icmp eq ptr %9, %1
  br i1 %10, label %11, label %12

11:                                               ; preds = %2
  store ptr null, ptr %8, align 8
  br label %12

12:                                               ; preds = %11, %2
  %13 = getelementptr inbounds nuw i8, ptr %4, i64 544
  %14 = load ptr, ptr %13, align 8
  %15 = icmp eq ptr %14, %1
  br i1 %15, label %16, label %17

16:                                               ; preds = %12
  store ptr null, ptr %13, align 8
  br label %17

17:                                               ; preds = %16, %12
  %.not = icmp eq ptr %6, null
  br i1 %.not, label %62, label %18

18:                                               ; preds = %17
  %19 = load i32, ptr %6, align 8
  %.not28 = icmp eq i32 %19, 0
  br i1 %.not28, label %27, label %20

20:                                               ; preds = %18
  %21 = getelementptr inbounds nuw i8, ptr %6, i64 4
  %22 = load i8, ptr %21, align 4, !range !3, !noundef !4
  %23 = trunc nuw i8 %22 to i1
  br i1 %23, label %27, label %24

24:                                               ; preds = %20
  %25 = getelementptr inbounds nuw i8, ptr %4, i64 136
  %26 = load ptr, ptr %25, align 8
  tail call void %26(i32 noundef 1, ptr noundef nonnull %6) #7
  br label %27

27:                                               ; preds = %24, %20, %18
  %28 = getelementptr inbounds nuw i8, ptr %6, i64 84
  %29 = load i8, ptr %28, align 4, !range !3, !noundef !4
  %30 = trunc nuw i8 %29 to i1
  br i1 %30, label %31, label %47

31:                                               ; preds = %27
  %32 = getelementptr inbounds nuw i8, ptr %6, i64 92
  %33 = load i8, ptr %32, align 4, !range !3, !noundef !4
  %34 = trunc nuw i8 %33 to i1
  br i1 %34, label %39, label %35

35:                                               ; preds = %31
  %36 = getelementptr inbounds nuw i8, ptr %4, i64 136
  %37 = load ptr, ptr %36, align 8
  %38 = getelementptr inbounds nuw i8, ptr %6, i64 88
  tail call void %37(i32 noundef 1, ptr noundef nonnull %38) #7
  br label %39

39:                                               ; preds = %35, %31
  %40 = getelementptr inbounds nuw i8, ptr %6, i64 100
  %41 = load i8, ptr %40, align 4, !range !3, !noundef !4
  %42 = trunc nuw i8 %41 to i1
  br i1 %42, label %47, label %43

43:                                               ; preds = %39
  %44 = getelementptr inbounds nuw i8, ptr %4, i64 136
  %45 = load ptr, ptr %44, align 8
  %46 = getelementptr inbounds nuw i8, ptr %6, i64 96
  tail call void %45(i32 noundef 1, ptr noundef nonnull %46) #7
  br label %47

47:                                               ; preds = %39, %43, %27
  %48 = getelementptr inbounds nuw i8, ptr %6, i64 85
  %49 = load i8, ptr %48, align 1, !range !3, !noundef !4
  %50 = trunc nuw i8 %49 to i1
  br i1 %50, label %51, label %59

51:                                               ; preds = %47
  %52 = getelementptr inbounds nuw i8, ptr %6, i64 92
  %53 = load i8, ptr %52, align 4, !range !3, !noundef !4
  %54 = trunc nuw i8 %53 to i1
  br i1 %54, label %59, label %55

55:                                               ; preds = %51
  %56 = getelementptr inbounds nuw i8, ptr %4, i64 136
  %57 = load ptr, ptr %56, align 8
  %58 = getelementptr inbounds nuw i8, ptr %6, i64 88
  tail call void %57(i32 noundef 1, ptr noundef nonnull %58) #7
  br label %59

59:                                               ; preds = %51, %55, %47
  %60 = getelementptr inbounds nuw i8, ptr %6, i64 56
  %61 = load ptr, ptr %60, align 8
  tail call void @SDL_free_REAL(ptr noundef %61) #7
  tail call void @SDL_free_REAL(ptr noundef nonnull %6) #7
  store ptr null, ptr %5, align 8
  br label %62

62:                                               ; preds = %17, %59
  ret void
}